; Function Attrs: nounwind uwtable
define void @Acec_CommonFinish(ptr noundef %0) local_unnamed_addr #2 {
  tail call void @Gia_ManCreateRefs(ptr noundef %0) #20
  %2 = getelementptr inbounds nuw i8, ptr %0, i64 24
  %3 = load i32, ptr %2, align 8
  %4 = icmp sgt i32 %3, 0
  br i1 %4, label %.lr.ph, label %._crit_edge

.lr.ph:                                           ; preds = %1
  %5 = getelementptr i8, ptr %0, i64 32
  %6 = getelementptr i8, ptr %0, i64 144
  %7 = getelementptr inbounds nuw i8, ptr %0, i64 72
  %8 = getelementptr inbounds nuw i8, ptr %0, i64 232
  br label %9

9:                                                ; preds = %.lr.ph, %Gia_ManAppendCo.exit
  %indvars.iv = phi i64 [ 0, %.lr.ph ], [ %indvars.iv.next, %Gia_ManAppendCo.exit ]
  %.val = load ptr, ptr %5, align 8
  %10 = getelementptr inbounds nuw %struct.Gia_Obj_t_, ptr %.val, i64 %indvars.iv
  %.val9 = load i64, ptr %10, align 4
  %11 = and i64 %.val9, 2147483648
  %.not.i = icmp ne i64 %11, 0
  %12 = and i64 %.val9, 536870911
  %13 = icmp eq i64 %12, 536870911
  %narrow.i.not = or i1 %.not.i, %13
  br i1 %narrow.i.not, label %Gia_ManAppendCo.exit, label %14

14:                                               ; preds = %9
  %.val10 = load ptr, ptr %6, align 8
  %15 = getelementptr inbounds nuw i32, ptr %.val10, i64 %indvars.iv
  %16 = load i32, ptr %15, align 4
  %17 = icmp eq i32 %16, 0
  br i1 %17, label %18, label %Gia_ManAppendCo.exit

18:                                               ; preds = %14
  %19 = tail call fastcc ptr @Gia_ManAppendObj(ptr noundef nonnull %0)
  %20 = load i64, ptr %19, align 4
  %21 = or i64 %20, 2147483648
  store i64 %21, ptr %19, align 4
  %.val18.i = load ptr, ptr %5, align 8
  %22 = ptrtoint ptr %19 to i64
  %23 = ptrtoint ptr %.val18.i to i64
  %24 = sub i64 %22, %23
  %25 = sdiv exact i64 %24, 12
  %26 = sub i64 %25, %indvars.iv
  %27 = and i64 %26, 536870911
  %28 = and i64 %21, -1073741824
  %29 = or disjoint i64 %28, %27
  store i64 %29, ptr %19, align 4
  %30 = load ptr, ptr %7, align 8
  %31 = getelementptr i8, ptr %30, i64 4
  %.val.i = load i32, ptr %31, align 4
  %32 = and i32 %.val.i, 536870911
  %33 = zext nneg i32 %32 to i64
  %34 = shl nuw nsw i64 %33, 32
  %35 = and i64 %29, -2305843005455597569
  %36 = or disjoint i64 %35, %34
  store i64 %36, ptr %19, align 4
  %37 = load ptr, ptr %7, align 8
  %.val19.i = load ptr, ptr %5, align 8
  %38 = ptrtoint ptr %.val19.i to i64
  %39 = sub i64 %22, %38
  %40 = sdiv exact i64 %39, 12
  %41 = trunc i64 %40 to i32
  %42 = getelementptr inbounds nuw i8, ptr %37, i64 4
  %43 = load i32, ptr %42, align 4
  %44 = load i32, ptr %37, align 8
  %45 = icmp eq i32 %43, %44
  br i1 %45, label %46, label %.Vec_IntGrow.exit10_crit_edge.i.i

.Vec_IntGrow.exit10_crit_edge.i.i:                ; preds = %18
  %.phi.trans.insert.i.i = getelementptr inbounds nuw i8, ptr %37, i64 8
  %.pre.i.i = load ptr, ptr %.phi.trans.insert.i.i, align 8
  br label %Vec_IntPush.exit.i

46:                                               ; preds = %18
  %47 = icmp slt i32 %43, 16
  br i1 %47, label %48, label %56

48:                                               ; preds = %46
  %49 = getelementptr inbounds nuw i8, ptr %37, i64 8
  %50 = load ptr, ptr %49, align 8
  %.not9.i.i.i = icmp eq ptr %50, null
  br i1 %.not9.i.i.i, label %53, label %51

51:                                               ; preds = %48
  %52 = tail call dereferenceable_or_null(64) ptr @realloc(ptr noundef nonnull %50, i64 noundef 64) #21
  br label %Vec_IntGrow.exit.i.i

53:                                               ; preds = %48
  %54 = tail call noalias dereferenceable_or_null(64) ptr @malloc(i64 noundef 64) #19
  br label %Vec_IntGrow.exit.i.i

Vec_IntGrow.exit.i.i:                             ; preds = %53, %51
  %55 = phi ptr [ %52, %51 ], [ %54, %53 ]
  store ptr %55, ptr %49, align 8
  store i32 16, ptr %37, align 8
  br label %Vec_IntPush.exit.i

56:                                               ; preds = %46
  %57 = shl nuw nsw i32 %43, 1
  %58 = getelementptr inbounds nuw i8, ptr %37, i64 8
  %59 = load ptr, ptr %58, align 8
  %.not9.i9.i.i = icmp eq ptr %59, null
  %60 = zext nneg i32 %57 to i64
  %61 = shl nuw nsw i64 %60, 2
  br i1 %.not9.i9.i.i, label %64, label %62

62:                                               ; preds = %56
  %63 = tail call ptr @realloc(ptr noundef nonnull %59, i64 noundef %61) #21
  br label %66

64:                                               ; preds = %56
  %65 = tail call noalias ptr @malloc(i64 noundef %61) #19
  br label %66

66:                                               ; preds = %64, %62
  %67 = phi ptr [ %63, %62 ], [ %65, %64 ]
  store ptr %67, ptr %58, align 8
  store i32 %57, ptr %37, align 8
  br label %Vec_IntPush.exit.i

Vec_IntPush.exit.i:                               ; preds = %66, %Vec_IntGrow.exit.i.i, %.Vec_IntGrow.exit10_crit_edge.i.i
  %68 = phi ptr [ %.pre.i.i, %.Vec_IntGrow.exit10_crit_edge.i.i ], [ %67, %66 ], [ %55, %Vec_IntGrow.exit.i.i ]
  %69 = load i32, ptr %42, align 4
  %70 = add nsw i32 %69, 1
  store i32 %70, ptr %42, align 4
  %71 = sext i32 %69 to i64
  %72 = getelementptr inbounds i32, ptr %68, i64 %71
  store i32 %41, ptr %72, align 4
  %73 = load ptr, ptr %8, align 8
  %.not.i11 = icmp eq ptr %73, null
  br i1 %.not.i11, label %Gia_ManAppendCo.exit, label %74

74:                                               ; preds = %Vec_IntPush.exit.i
  %75 = load i64, ptr %19, align 4
  %76 = and i64 %75, 536870911
  %77 = sub nsw i64 0, %76
  %78 = getelementptr inbounds %struct.Gia_Obj_t_, ptr %19, i64 %77
  tail call void @Gia_ObjAddFanout(ptr noundef nonnull %0, ptr noundef nonnull %78, ptr noundef nonnull %19) #20
  br label %Gia_ManAppendCo.exit

Gia_ManAppendCo.exit:                             ; preds = %74, %Vec_IntPush.exit.i, %9, %14
  %indvars.iv.next = add nuw nsw i64 %indvars.iv, 1
  %79 = load i32, ptr %2, align 8
  %80 = sext i32 %79 to i64
  %81 = icmp slt i64 %indvars.iv.next, %80
  br i1 %81, label %9, label %._crit_edge, !llvm.loop !15

._crit_edge:                                      ; preds = %Gia_ManAppendCo.exit, %1
  ret void
}